; Function Attrs: nounwind uwtable
define internal range(i32 -12, 1) i32 @config_output(ptr noundef readonly captures(none) %0) #4 {
  %2 = load ptr, ptr %0, align 8, !tbaa !56
  %3 = getelementptr inbounds nuw i8, ptr %2, i64 72
  %4 = load ptr, ptr %3, align 8, !tbaa !15
  %5 = tail call fastcc i32 @config_filter(ptr noundef %2)
  %6 = icmp slt i32 %5, 0
  br i1 %6, label %10, label %7

7:                                                ; preds = %1
  %8 = getelementptr inbounds nuw i8, ptr %4, i64 4194392
  store ptr @compute_distance_ssd_c, ptr %8, align 8, !tbaa !4
  %9 = getelementptr inbounds nuw i8, ptr %4, i64 4194400
  store ptr @compute_cache_c, ptr %9, align 8, !tbaa !9
  br label %10

10:                                               ; preds = %1, %7
  ret i32 %5
}